target datalayout = "e-m:e-p270:32:32-p271:32:32-p272:64:64-i64:64-i128:128-f80:128-n8:16:32:64-S128"
target triple = "x86_64-pc-linux-gnu"

%struct.EVP_SEED_KEY = type { %struct.seed_key_st }
%struct.seed_key_st = type { [32 x i32] }
%struct.evp_cipher_ctx_st = type { ptr, ptr, i32, i32, [16 x i8], [16 x i8], [32 x i8], i32, ptr, i32, i32, i64, ptr, i32, i32, [32 x i8], i64, ptr, ptr }

; Function Attrs: nounwind uwtable
define internal i32 @seed_cbc_cipher(ptr noundef %0, ptr noundef %1, ptr noundef %2, i64 noundef %3) #0 {
  %5 = alloca ptr, align 8
  %6 = alloca ptr, align 8
  %7 = alloca ptr, align 8
  %8 = alloca i64, align 8
  store ptr %0, ptr %5, align 8, !tbaa !3
  store ptr %1, ptr %6, align 8, !tbaa !8
  store ptr %2, ptr %7, align 8, !tbaa !8
  store i64 %3, ptr %8, align 8, !tbaa !12
  br label %9

9:                                                ; preds = %12, %4
  %10 = load i64, ptr %8, align 8, !tbaa !12
  %11 = icmp uge i64 %10, 1073741824
  br i1 %11, label %12, label %29

12:                                               ; preds = %9
  %13 = load ptr, ptr %7, align 8, !tbaa !8
  %14 = load ptr, ptr %6, align 8, !tbaa !8
  %15 = load ptr, ptr %5, align 8, !tbaa !3
  %16 = call ptr @EVP_CIPHER_CTX_get_cipher_data(ptr noundef %15)
  %17 = getelementptr inbounds nuw %struct.EVP_SEED_KEY, ptr %16, i32 0, i32 0
  %18 = load ptr, ptr %5, align 8, !tbaa !3
  %19 = getelementptr inbounds nuw %struct.evp_cipher_ctx_st, ptr %18, i32 0, i32 5
  %20 = getelementptr inbounds [16 x i8], ptr %19, i64 0, i64 0
  %21 = load ptr, ptr %5, align 8, !tbaa !3
  %22 = call i32 @EVP_CIPHER_CTX_is_encrypting(ptr noundef %21)
  call void @SEED_cbc_encrypt(ptr noundef %13, ptr noundef %14, i64 noundef 1073741824, ptr noundef %17, ptr noundef %20, i32 noundef %22)
  %23 = load i64, ptr %8, align 8, !tbaa !12
  %24 = sub i64 %23, 1073741824
  store i64 %24, ptr %8, align 8, !tbaa !12
  %25 = load ptr, ptr %7, align 8, !tbaa !8
  %26 = getelementptr inbounds nuw i8, ptr %25, i64 1073741824
  store ptr %26, ptr %7, align 8, !tbaa !8
  %27 = load ptr, ptr %6, align 8, !tbaa !8
  %28 = getelementptr inbounds nuw i8, ptr %27, i64 1073741824
  store ptr %28, ptr %6, align 8, !tbaa !8
  br label %9, !llvm.loop !14

29:                                               ; preds = %9
  %30 = load i64, ptr %8, align 8, !tbaa !12
  %31 = icmp ne i64 %30, 0
  br i1 %31, label %32, label %44

32:                                               ; preds = %29
  %33 = load ptr, ptr %7, align 8, !tbaa !8
  %34 = load ptr, ptr %6, align 8, !tbaa !8
  %35 = load i64, ptr %8, align 8, !tbaa !12
  %36 = load ptr, ptr %5, align 8, !tbaa !3
  %37 = call ptr @EVP_CIPHER_CTX_get_cipher_data(ptr noundef %36)
  %38 = getelementptr inbounds nuw %struct.EVP_SEED_KEY, ptr %37, i32 0, i32 0
  %39 = load ptr, ptr %5, align 8, !tbaa !3
  %40 = getelementptr inbounds nuw %struct.evp_cipher_ctx_st, ptr %39, i32 0, i32 5
  %41 = getelementptr inbounds [16 x i8], ptr %40, i64 0, i64 0
  %42 = load ptr, ptr %5, align 8, !tbaa !3
  %43 = call i32 @EVP_CIPHER_CTX_is_encrypting(ptr noundef %42)
  call void @SEED_cbc_encrypt(ptr noundef %33, ptr noundef %34, i64 noundef %35, ptr noundef %38, ptr noundef %41, i32 noundef %43)
  br label %44

44:                                               ; preds = %32, %29
  ret i32 1
}